; Function Attrs: nounwind uwtable
define nonnull ptr @l___private_Lean_Elab_Tactic_Try_0__Lean_Elab_Tactic_Try_mergeGrind_x3f(ptr noundef %0, ptr noundef %1) local_unnamed_addr #0 {
  %3 = load ptr, ptr @l___private_Lean_Elab_Tactic_Try_0__Lean_Elab_Tactic_Try_isExprAccessible___closed__4, align 8, !tbaa !4
  %4 = ptrtoint ptr %0 to i64
  %5 = and i64 %4, 1
  %.not = icmp eq i64 %5, 0
  br i1 %.not, label %6, label %lean_inc.exit19

6:                                                ; preds = %2
  %.val.i = load i32, ptr %0, align 4, !tbaa !8
  %7 = icmp sgt i32 %.val.i, 0
  br i1 %7, label %8, label %10, !prof !11

8:                                                ; preds = %6
  %9 = add nuw i32 %.val.i, 1
  store i32 %9, ptr %0, align 4, !tbaa !8
  br label %lean_inc.exit19

10:                                               ; preds = %6
  %.not.i24 = icmp eq i32 %.val.i, 0
  br i1 %.not.i24, label %lean_inc.exit19, label %11

11:                                               ; preds = %10
  tail call void @lean_inc_ref_cold(ptr noundef nonnull %0) #5
  br label %lean_inc.exit19

lean_inc.exit19:                                  ; preds = %11, %10, %8, %2
  %12 = tail call ptr @l_Lean_Elab_Tactic_setGrindParams(ptr noundef %0, ptr noundef %3) #5
  %13 = ptrtoint ptr %1 to i64
  %14 = and i64 %13, 1
  %.not28 = icmp eq i64 %14, 0
  br i1 %.not28, label %15, label %lean_inc.exit

15:                                               ; preds = %lean_inc.exit19
  %.val.i25 = load i32, ptr %1, align 4, !tbaa !8
  %16 = icmp sgt i32 %.val.i25, 0
  br i1 %16, label %17, label %19, !prof !11

17:                                               ; preds = %15
  %18 = add nuw i32 %.val.i25, 1
  store i32 %18, ptr %1, align 4, !tbaa !8
  br label %lean_inc.exit

19:                                               ; preds = %15
  %.not.i26 = icmp eq i32 %.val.i25, 0
  br i1 %.not.i26, label %lean_inc.exit, label %20

20:                                               ; preds = %19
  tail call void @lean_inc_ref_cold(ptr noundef nonnull %1) #5
  br label %lean_inc.exit

lean_inc.exit:                                    ; preds = %20, %19, %17, %lean_inc.exit19
  %21 = tail call ptr @l_Lean_Elab_Tactic_setGrindParams(ptr noundef %1, ptr noundef %3) #5
  %22 = tail call zeroext i8 @l_Lean_Syntax_structEq(ptr noundef %12, ptr noundef %21) #5
  %23 = icmp eq i8 %22, 0
  br i1 %23, label %24, label %39

24:                                               ; preds = %lean_inc.exit
  br i1 %.not28, label %25, label %lean_dec.exit18

25:                                               ; preds = %24
  %26 = load i32, ptr %1, align 4, !tbaa !8
  %27 = icmp sgt i32 %26, 1
  br i1 %27, label %28, label %30, !prof !11

28:                                               ; preds = %25
  %29 = add nsw i32 %26, -1
  store i32 %29, ptr %1, align 4, !tbaa !8
  br label %lean_dec.exit18

30:                                               ; preds = %25
  %.not.i = icmp eq i32 %26, 0
  br i1 %.not.i, label %lean_dec.exit18, label %31

31:                                               ; preds = %30
  tail call void @lean_dec_ref_cold(ptr noundef nonnull %1) #5
  br label %lean_dec.exit18

lean_dec.exit18:                                  ; preds = %31, %30, %28, %24
  br i1 %.not, label %32, label %lean_dec.exit17

32:                                               ; preds = %lean_dec.exit18
  %33 = load i32, ptr %0, align 4, !tbaa !8
  %34 = icmp sgt i32 %33, 1
  br i1 %34, label %35, label %37, !prof !11

35:                                               ; preds = %32
  %36 = add nsw i32 %33, -1
  store i32 %36, ptr %0, align 4, !tbaa !8
  br label %lean_dec.exit17

37:                                               ; preds = %32
  %.not.i20 = icmp eq i32 %33, 0
  br i1 %.not.i20, label %lean_dec.exit17, label %38

38:                                               ; preds = %37
  tail call void @lean_dec_ref_cold(ptr noundef nonnull %0) #5
  br label %lean_dec.exit17

39:                                               ; preds = %lean_inc.exit
  %40 = tail call ptr @l___private_Lean_Elab_Tactic_Try_0__Lean_Elab_Tactic_Try_mergeGrind_x3f___lambda__1(ptr noundef %0, ptr noundef %1, ptr nonnull poison)
  br i1 %.not28, label %41, label %lean_dec.exit17

41:                                               ; preds = %39
  %42 = load i32, ptr %1, align 4, !tbaa !8
  %43 = icmp sgt i32 %42, 1
  br i1 %43, label %44, label %46, !prof !11

44:                                               ; preds = %41
  %45 = add nsw i32 %42, -1
  store i32 %45, ptr %1, align 4, !tbaa !8
  br label %lean_dec.exit17

46:                                               ; preds = %41
  %.not.i22 = icmp eq i32 %42, 0
  br i1 %.not.i22, label %lean_dec.exit17, label %47

47:                                               ; preds = %46
  tail call void @lean_dec_ref_cold(ptr noundef nonnull %1) #5
  br label %lean_dec.exit17

lean_dec.exit17:                                  ; preds = %39, %44, %46, %47, %lean_dec.exit18, %35, %37, %38
  %.0 = phi ptr [ inttoptr (i64 1 to ptr), %38 ], [ inttoptr (i64 1 to ptr), %37 ], [ inttoptr (i64 1 to ptr), %35 ], [ inttoptr (i64 1 to ptr), %lean_dec.exit18 ], [ %40, %47 ], [ %40, %46 ], [ %40, %44 ], [ %40, %39 ]
  ret ptr %.0
}